target datalayout = "e-m:e-p270:32:32-p271:32:32-p272:64:64-i64:64-i128:128-f80:128-n8:16:32:64-S128"
target triple = "x86_64-pc-linux-gnu"

%struct.PCIHostDeviceAddress = type { i32, i32, i32, i32 }

@.str.9 = private unnamed_addr constant [19 x i8] c"%04x:%02x:%02x.%1x\00", align 1

; Function Attrs: nounwind sspstrong uwtable
define dso_local zeroext i1 @vfio_pci_host_match(ptr noundef %0, ptr noundef %1) #0 {
  %3 = alloca ptr, align 8
  %4 = alloca ptr, align 8
  %5 = alloca [13 x i8], align 1
  store ptr %0, ptr %3, align 8
  store ptr %1, ptr %4, align 8
  call void @llvm.lifetime.start.p0(i64 13, ptr %5) #19
  call void @llvm.memset.p0.i64(ptr align 1 %5, i8 0, i64 13, i1 false), !annotation !4
  %6 = getelementptr inbounds [13 x i8], ptr %5, i64 0, i64 0
  %7 = load ptr, ptr %3, align 8
  %8 = getelementptr inbounds nuw %struct.PCIHostDeviceAddress, ptr %7, i32 0, i32 0
  %9 = load i32, ptr %8, align 4
  %10 = load ptr, ptr %3, align 8
  %11 = getelementptr inbounds nuw %struct.PCIHostDeviceAddress, ptr %10, i32 0, i32 1
  %12 = load i32, ptr %11, align 4
  %13 = load ptr, ptr %3, align 8
  %14 = getelementptr inbounds nuw %struct.PCIHostDeviceAddress, ptr %13, i32 0, i32 2
  %15 = load i32, ptr %14, align 4
  %16 = load ptr, ptr %3, align 8
  %17 = getelementptr inbounds nuw %struct.PCIHostDeviceAddress, ptr %16, i32 0, i32 3
  %18 = load i32, ptr %17, align 4
  %19 = call i32 (ptr, i32, i64, ptr, ...) @__sprintf_chk(ptr noundef %6, i32 noundef 1, i64 noundef 13, ptr noundef @.str.9, i32 noundef %9, i32 noundef %12, i32 noundef %15, i32 noundef %18)
  %20 = getelementptr inbounds [13 x i8], ptr %5, i64 0, i64 0
  %21 = load ptr, ptr %4, align 8
  %22 = call i32 @strcmp(ptr noundef %20, ptr noundef %21) #24
  %23 = icmp eq i32 %22, 0
  call void @llvm.lifetime.end.p0(i64 13, ptr %5) #19
  ret i1 %23
}