; Function Attrs: nofree nounwind sspstrong uwtable
define dso_local zeroext i1 @vfio_pci_host_match(ptr noundef readonly captures(none) %0, ptr noundef readonly captures(none) %1) local_unnamed_addr #6 {
  %3 = alloca [13 x i8], align 1
  call void @llvm.lifetime.start.p0(i64 13, ptr nonnull %3) #26
  call void @llvm.memset.p0.i64(ptr noundef nonnull align 1 dereferenceable(13) %3, i8 0, i64 13, i1 false), !annotation !4
  %4 = load i32, ptr %0, align 4
  %5 = getelementptr inbounds nuw i8, ptr %0, i64 4
  %6 = load i32, ptr %5, align 4
  %7 = getelementptr inbounds nuw i8, ptr %0, i64 8
  %8 = load i32, ptr %7, align 4
  %9 = getelementptr inbounds nuw i8, ptr %0, i64 12
  %10 = load i32, ptr %9, align 4
  %11 = call i32 (ptr, i32, i64, ptr, ...) @__sprintf_chk(ptr noundef nonnull %3, i32 noundef 1, i64 noundef 13, ptr noundef nonnull @.str.9, i32 noundef %4, i32 noundef %6, i32 noundef %8, i32 noundef %10) #26
  %12 = call i32 @strcmp(ptr noundef nonnull dereferenceable(1) %3, ptr noundef nonnull dereferenceable(1) %1) #31
  %13 = icmp eq i32 %12, 0
  call void @llvm.lifetime.end.p0(i64 13, ptr nonnull %3) #26
  ret i1 %13
}